; ModuleID = '41/812.cpp'
source_filename = "41/812.cpp"
target datalayout = "e-m:e-p270:32:32-p271:32:32-p272:64:64-i64:64-f80:128-n8:16:32:64-S128"
target triple = "x86_64-pc-linux-gnu"

%"class.std::ios_base::Init" = type { i8 }
%"class.std::basic_ostream" = type { i32 (...)**, %"class.std::basic_ios" }
%"class.std::basic_ios" = type { %"class.std::ios_base", %"class.std::basic_ostream"*, i8, i8, %"class.std::basic_streambuf"*, %"class.std::ctype"*, %"class.std::num_put"*, %"class.std::num_get"* }
%"class.std::ios_base" = type { i32 (...)**, i64, i64, i32, i32, i32, %"struct.std::ios_base::_Callback_list"*, %"struct.std::ios_base::_Words", [8 x %"struct.std::ios_base::_Words"], i32, %"struct.std::ios_base::_Words"*, %"class.std::locale" }
%"struct.std::ios_base::_Callback_list" = type { %"struct.std::ios_base::_Callback_list"*, void (i32, %"class.std::ios_base"*, i32)*, i32, i32 }
%"struct.std::ios_base::_Words" = type { i8*, i64 }
%"class.std::locale" = type { %"class.std::locale::_Impl"* }
%"class.std::locale::_Impl" = type { i32, %"class.std::locale::facet"**, i64, %"class.std::locale::facet"**, i8** }
%"class.std::locale::facet" = type <{ i32 (...)**, i32, [4 x i8] }>
%"class.std::basic_streambuf" = type { i32 (...)**, i8*, i8*, i8*, i8*, i8*, i8*, %"class.std::locale" }
%"class.std::ctype" = type <{ %"class.std::locale::facet.base", [4 x i8], %struct.__locale_struct*, i8, [7 x i8], i32*, i32*, i16*, i8, [256 x i8], [256 x i8], i8, [6 x i8] }>
%"class.std::locale::facet.base" = type <{ i32 (...)**, i32 }>
%struct.__locale_struct = type { [13 x %struct.__locale_data*], i16*, i32*, i32*, [13 x i8*] }
%struct.__locale_data = type opaque
%"class.std::num_put" = type { %"class.std::locale::facet.base", [4 x i8] }
%"class.std::num_get" = type { %"class.std::locale::facet.base", [4 x i8] }

@_ZStL8__ioinit = internal global %"class.std::ios_base::Init" zeroinitializer, align 1
@__dso_handle = external hidden global i8
@_ZSt4cout = external dso_local global %"class.std::basic_ostream", align 8
@llvm.global_ctors = appending global [1 x { i32, void ()*, i8* }] [{ i32, void ()*, i8* } { i32 65535, void ()* @_GLOBAL__sub_I_812.cpp, i8* null }]

; Function Attrs: noinline uwtable
define internal void @__cxx_global_var_init() #0 section ".text.startup" {
  call void @_ZNSt8ios_base4InitC1Ev(%"class.std::ios_base::Init"* @_ZStL8__ioinit)
  %1 = call i32 @__cxa_atexit(void (i8*)* bitcast (void (%"class.std::ios_base::Init"*)* @_ZNSt8ios_base4InitD1Ev to void (i8*)*), i8* getelementptr inbounds (%"class.std::ios_base::Init", %"class.std::ios_base::Init"* @_ZStL8__ioinit, i32 0, i32 0), i8* @__dso_handle) #3
  ret void
}

declare dso_local void @_ZNSt8ios_base4InitC1Ev(%"class.std::ios_base::Init"*) unnamed_addr #1

; Function Attrs: nounwind
declare dso_local void @_ZNSt8ios_base4InitD1Ev(%"class.std::ios_base::Init"*) unnamed_addr #2

; Function Attrs: nounwind
declare dso_local i32 @__cxa_atexit(void (i8*)*, i8*, i8*) #3

; Function Attrs: noinline norecurse uwtable
define dso_local i32 @main() #4 {
  %1 = alloca i32, align 4
  %2 = alloca i32, align 4
  %3 = alloca i32, align 4
  %4 = alloca i32, align 4
  %5 = alloca i32, align 4
  %6 = alloca i32, align 4
  store i32 0, i32* %1, align 4
  store i32 1, i32* %2, align 4
  br label %7

7:                                                ; preds = %173, %0
  %8 = load i32, i32* %2, align 4
  %9 = icmp sle i32 %8, 5
  br i1 %9, label %10, label %176

10:                                               ; preds = %7
  store i32 1, i32* %3, align 4
  store i32 1, i32* %3, align 4
  br label %11

11:                                               ; preds = %169, %10
  %12 = load i32, i32* %3, align 4
  %13 = icmp sle i32 %12, 5
  br i1 %13, label %14, label %172

14:                                               ; preds = %11
  store i32 1, i32* %4, align 4
  %15 = load i32, i32* %2, align 4
  %16 = load i32, i32* %3, align 4
  %17 = icmp eq i32 %15, %16
  br i1 %17, label %18, label %19

18:                                               ; preds = %14
  br label %169

19:                                               ; preds = %14
  store i32 1, i32* %4, align 4
  br label %20

20:                                               ; preds = %165, %19
  %21 = load i32, i32* %4, align 4
  %22 = icmp sle i32 %21, 5
  br i1 %22, label %23, label %168

23:                                               ; preds = %20
  store i32 1, i32* %5, align 4
  %24 = load i32, i32* %2, align 4
  %25 = load i32, i32* %4, align 4
  %26 = icmp eq i32 %24, %25
  br i1 %26, label %31, label %27

27:                                               ; preds = %23
  %28 = load i32, i32* %3, align 4
  %29 = load i32, i32* %4, align 4
  %30 = icmp eq i32 %28, %29
  br i1 %30, label %31, label %32

31:                                               ; preds = %27, %23
  br label %165

32:                                               ; preds = %27
  store i32 1, i32* %5, align 4
  br label %33

33:                                               ; preds = %161, %32
  %34 = load i32, i32* %5, align 4
  %35 = icmp sle i32 %34, 5
  br i1 %35, label %36, label %164

36:                                               ; preds = %33
  store i32 1, i32* %6, align 4
  %37 = load i32, i32* %2, align 4
  %38 = load i32, i32* %5, align 4
  %39 = icmp eq i32 %37, %38
  br i1 %39, label %48, label %40

40:                                               ; preds = %36
  %41 = load i32, i32* %3, align 4
  %42 = load i32, i32* %5, align 4
  %43 = icmp eq i32 %41, %42
  br i1 %43, label %48, label %44

44:                                               ; preds = %40
  %45 = load i32, i32* %4, align 4
  %46 = load i32, i32* %5, align 4
  %47 = icmp eq i32 %45, %46
  br i1 %47, label %48, label %49

48:                                               ; preds = %44, %40, %36
  br label %161

49:                                               ; preds = %44
  store i32 1, i32* %6, align 4
  br label %50

50:                                               ; preds = %157, %49
  %51 = load i32, i32* %6, align 4
  %52 = icmp sle i32 %51, 5
  br i1 %52, label %53, label %160

53:                                               ; preds = %50
  %54 = load i32, i32* %2, align 4
  %55 = load i32, i32* %6, align 4
  %56 = icmp eq i32 %54, %55
  br i1 %56, label %75, label %57

57:                                               ; preds = %53
  %58 = load i32, i32* %3, align 4
  %59 = load i32, i32* %6, align 4
  %60 = icmp eq i32 %58, %59
  br i1 %60, label %75, label %61

61:                                               ; preds = %57
  %62 = load i32, i32* %4, align 4
  %63 = load i32, i32* %6, align 4
  %64 = icmp eq i32 %62, %63
  br i1 %64, label %75, label %65

65:                                               ; preds = %61
  %66 = load i32, i32* %5, align 4
  %67 = load i32, i32* %6, align 4
  %68 = icmp eq i32 %66, %67
  br i1 %68, label %75, label %69

69:                                               ; preds = %65
  %70 = load i32, i32* %6, align 4
  %71 = icmp eq i32 %70, 2
  br i1 %71, label %75, label %72

72:                                               ; preds = %69
  %73 = load i32, i32* %6, align 4
  %74 = icmp eq i32 %73, 3
  br i1 %74, label %75, label %76

75:                                               ; preds = %72, %69, %65, %61, %57, %53
  br label %157

76:                                               ; preds = %72
  %77 = load i32, i32* %2, align 4
  %78 = icmp eq i32 %77, 1
  br i1 %78, label %82, label %79

79:                                               ; preds = %76
  %80 = load i32, i32* %2, align 4
  %81 = icmp eq i32 %80, 2
  br label %82

82:                                               ; preds = %79, %76
  %83 = phi i1 [ true, %76 ], [ %81, %79 ]
  %84 = zext i1 %83 to i32
  %85 = load i32, i32* %6, align 4
  %86 = icmp eq i32 %85, 1
  %87 = zext i1 %86 to i32
  %88 = icmp eq i32 %84, %87
  br i1 %88, label %89, label %156

89:                                               ; preds = %82
  %90 = load i32, i32* %3, align 4
  %91 = icmp eq i32 %90, 1
  br i1 %91, label %95, label %92

92:                                               ; preds = %89
  %93 = load i32, i32* %3, align 4
  %94 = icmp eq i32 %93, 2
  br label %95

95:                                               ; preds = %92, %89
  %96 = phi i1 [ true, %89 ], [ %94, %92 ]
  %97 = zext i1 %96 to i32
  %98 = load i32, i32* %3, align 4
  %99 = icmp eq i32 %98, 2
  %100 = zext i1 %99 to i32
  %101 = icmp eq i32 %97, %100
  br i1 %101, label %102, label %156

102:                                              ; preds = %95
  %103 = load i32, i32* %4, align 4
  %104 = icmp eq i32 %103, 1
  br i1 %104, label %108, label %105

105:                                              ; preds = %102
  %106 = load i32, i32* %4, align 4
  %107 = icmp eq i32 %106, 2
  br label %108

108:                                              ; preds = %105, %102
  %109 = phi i1 [ true, %102 ], [ %107, %105 ]
  %110 = zext i1 %109 to i32
  %111 = load i32, i32* %2, align 4
  %112 = icmp eq i32 %111, 5
  %113 = zext i1 %112 to i32
  %114 = icmp eq i32 %110, %113
  br i1 %114, label %115, label %156

115:                                              ; preds = %108
  %116 = load i32, i32* %5, align 4
  %117 = icmp eq i32 %116, 1
  br i1 %117, label %121, label %118

118:                                              ; preds = %115
  %119 = load i32, i32* %5, align 4
  %120 = icmp eq i32 %119, 2
  br label %121

121:                                              ; preds = %118, %115
  %122 = phi i1 [ true, %115 ], [ %120, %118 ]
  %123 = zext i1 %122 to i32
  %124 = load i32, i32* %4, align 4
  %125 = icmp ne i32 %124, 1
  %126 = zext i1 %125 to i32
  %127 = icmp eq i32 %123, %126
  br i1 %127, label %128, label %156

128:                                              ; preds = %121
  %129 = load i32, i32* %6, align 4
  %130 = icmp eq i32 %129, 1
  br i1 %130, label %134, label %131

131:                                              ; preds = %128
  %132 = load i32, i32* %6, align 4
  %133 = icmp eq i32 %132, 2
  br label %134

134:                                              ; preds = %131, %128
  %135 = phi i1 [ true, %128 ], [ %133, %131 ]
  %136 = zext i1 %135 to i32
  %137 = load i32, i32* %5, align 4
  %138 = icmp eq i32 %137, 1
  %139 = zext i1 %138 to i32
  %140 = icmp eq i32 %136, %139
  br i1 %140, label %141, label %156

141:                                              ; preds = %134
  %142 = load i32, i32* %2, align 4
  %143 = call dereferenceable(272) %"class.std::basic_ostream"* @_ZNSolsEi(%"class.std::basic_ostream"* @_ZSt4cout, i32 %142)
  %144 = call dereferenceable(272) %"class.std::basic_ostream"* @_ZStlsISt11char_traitsIcEERSt13basic_ostreamIcT_ES5_c(%"class.std::basic_ostream"* dereferenceable(272) %143, i8 signext 32)
  %145 = load i32, i32* %3, align 4
  %146 = call dereferenceable(272) %"class.std::basic_ostream"* @_ZNSolsEi(%"class.std::basic_ostream"* %144, i32 %145)
  %147 = call dereferenceable(272) %"class.std::basic_ostream"* @_ZStlsISt11char_traitsIcEERSt13basic_ostreamIcT_ES5_c(%"class.std::basic_ostream"* dereferenceable(272) %146, i8 signext 32)
  %148 = load i32, i32* %4, align 4
  %149 = call dereferenceable(272) %"class.std::basic_ostream"* @_ZNSolsEi(%"class.std::basic_ostream"* %147, i32 %148)
  %150 = call dereferenceable(272) %"class.std::basic_ostream"* @_ZStlsISt11char_traitsIcEERSt13basic_ostreamIcT_ES5_c(%"class.std::basic_ostream"* dereferenceable(272) %149, i8 signext 32)
  %151 = load i32, i32* %5, align 4
  %152 = call dereferenceable(272) %"class.std::basic_ostream"* @_ZNSolsEi(%"class.std::basic_ostream"* %150, i32 %151)
  %153 = call dereferenceable(272) %"class.std::basic_ostream"* @_ZStlsISt11char_traitsIcEERSt13basic_ostreamIcT_ES5_c(%"class.std::basic_ostream"* dereferenceable(272) %152, i8 signext 32)
  %154 = load i32, i32* %6, align 4
  %155 = call dereferenceable(272) %"class.std::basic_ostream"* @_ZNSolsEi(%"class.std::basic_ostream"* %153, i32 %154)
  store i32 0, i32* %1, align 4
  br label %177

156:                                              ; preds = %134, %121, %108, %95, %82
  br label %157

157:                                              ; preds = %156, %75
  %158 = load i32, i32* %6, align 4
  %159 = add nsw i32 %158, 1
  store i32 %159, i32* %6, align 4
  br label %50

160:                                              ; preds = %50
  br label %161

161:                                              ; preds = %160, %48
  %162 = load i32, i32* %5, align 4
  %163 = add nsw i32 %162, 1
  store i32 %163, i32* %5, align 4
  br label %33

164:                                              ; preds = %33
  br label %165

165:                                              ; preds = %164, %31
  %166 = load i32, i32* %4, align 4
  %167 = add nsw i32 %166, 1
  store i32 %167, i32* %4, align 4
  br label %20

168:                                              ; preds = %20
  br label %169

169:                                              ; preds = %168, %18
  %170 = load i32, i32* %3, align 4
  %171 = add nsw i32 %170, 1
  store i32 %171, i32* %3, align 4
  br label %11

172:                                              ; preds = %11
  br label %173

173:                                              ; preds = %172
  %174 = load i32, i32* %2, align 4
  %175 = add nsw i32 %174, 1
  store i32 %175, i32* %2, align 4
  br label %7

176:                                              ; preds = %7
  store i32 0, i32* %1, align 4
  br label %177

177:                                              ; preds = %176, %141
  %178 = load i32, i32* %1, align 4
  ret i32 %178
}

declare dso_local dereferenceable(272) %"class.std::basic_ostream"* @_ZStlsISt11char_traitsIcEERSt13basic_ostreamIcT_ES5_c(%"class.std::basic_ostream"* dereferenceable(272), i8 signext) #1

declare dso_local dereferenceable(272) %"class.std::basic_ostream"* @_ZNSolsEi(%"class.std::basic_ostream"*, i32) #1

; Function Attrs: noinline uwtable
define internal void @_GLOBAL__sub_I_812.cpp() #0 section ".text.startup" {
  call void @__cxx_global_var_init()
  ret void
}


!llvm.module.flags = !{!0}
!llvm.ident = !{!1}

!0 = !{i32 1, !"wchar_size", i32 4}
!1 = !{!"clang version 10.0.0-4ubuntu1 "}
